target datalayout = "e-m:e-p270:32:32-p271:32:32-p272:64:64-i64:64-i128:128-f80:128-n8:16:32:64-S128"
target triple = "x86_64-pc-linux-gnu"

%struct._address = type { i32, i32, ptr, ptr }
%struct._packet_info = type { ptr, ptr, i32, i32, %struct.nstime_t, %struct.nstime_t, %struct.nstime_t, i8, ptr, ptr, ptr, ptr, %struct._address, %struct._address, %struct._address, %struct._address, %struct._address, %struct._address, i32, ptr, i8, [3 x i8], %struct.anon, i32, i32, i32, i32, ptr, i8, ptr, ptr, i16, i16, i32, i32, i16, i32, i32, ptr, ptr, ptr, i8, i8, i16, i16, i16, i32, i16, i16, ptr, ptr, ptr, ptr, ptr, i32, i32 }
%struct.nstime_t = type { i64, i32 }
%struct.anon = type { i8, [3 x i8] }

@hf_dvbci_mmi_char_tbl = internal global i32 0, align 4
@.str.1019 = private unnamed_addr constant [7 x i8] c"%s: %s\00", align 1
@.str.1020 = private unnamed_addr constant [2 x i8] c" \00", align 1

; Function Attrs: null_pointer_is_valid sspstrong uwtable
define internal void @dissect_si_string(ptr noundef %0, i32 noundef %1, i32 noundef %2, ptr noundef %3, ptr noundef %4, i32 noundef %5, ptr noundef %6, i1 noundef zeroext %7) #0 {
  %9 = alloca ptr, align 8
  %10 = alloca i32, align 4
  %11 = alloca i32, align 4
  %12 = alloca ptr, align 8
  %13 = alloca ptr, align 8
  %14 = alloca i32, align 4
  %15 = alloca ptr, align 8
  %16 = alloca i8, align 1
  %17 = alloca i32, align 4
  %18 = alloca i32, align 4
  %19 = alloca ptr, align 8
  %20 = alloca i32, align 4
  store ptr %0, ptr %9, align 8
  store i32 %1, ptr %10, align 4
  store i32 %2, ptr %11, align 4
  store ptr %3, ptr %12, align 8
  store ptr %4, ptr %13, align 8
  store i32 %5, ptr %14, align 4
  store ptr %6, ptr %15, align 8
  %21 = zext i1 %7 to i8
  store i8 %21, ptr %16, align 1
  call void @llvm.lifetime.start.p0(i64 4, ptr %17) #11
  call void @llvm.lifetime.start.p0(i64 4, ptr %18) #11
  call void @llvm.lifetime.start.p0(i64 8, ptr %19) #11
  store ptr null, ptr %19, align 8
  %22 = load ptr, ptr %15, align 8
  %23 = icmp ne ptr %22, null
  br i1 %23, label %25, label %24

24:                                               ; preds = %8
  store i32 1, ptr %20, align 4
  br label %76

25:                                               ; preds = %8
  %26 = load i32, ptr %11, align 4
  %27 = icmp sle i32 %26, 0
  br i1 %27, label %28, label %29

28:                                               ; preds = %25
  store i32 1, ptr %20, align 4
  br label %76

29:                                               ; preds = %25
  %30 = load ptr, ptr %9, align 8
  %31 = load i32, ptr %10, align 4
  %32 = load i32, ptr %11, align 4
  %33 = call i32 @dvb_analyze_string_charset(ptr noundef %30, i32 noundef %31, i32 noundef %32, ptr noundef %18)
  store i32 %33, ptr %17, align 4
  %34 = load ptr, ptr %13, align 8
  %35 = load i32, ptr @hf_dvbci_mmi_char_tbl, align 4
  %36 = load ptr, ptr %9, align 8
  %37 = load i32, ptr %10, align 4
  %38 = load i32, ptr %17, align 4
  %39 = load i32, ptr %18, align 4
  call void @dvb_add_chartbl(ptr noundef %34, i32 noundef %35, ptr noundef %36, i32 noundef %37, i32 noundef %38, i32 noundef %39)
  %40 = load i32, ptr %17, align 4
  %41 = load i32, ptr %10, align 4
  %42 = add i32 %41, %40
  store i32 %42, ptr %10, align 4
  %43 = load i32, ptr %17, align 4
  %44 = load i32, ptr %11, align 4
  %45 = sub i32 %44, %43
  store i32 %45, ptr %11, align 4
  %46 = load ptr, ptr %12, align 8
  %47 = getelementptr inbounds nuw %struct._packet_info, ptr %46, i32 0, i32 51
  %48 = load ptr, ptr %47, align 8
  %49 = load ptr, ptr %9, align 8
  %50 = load i32, ptr %10, align 4
  %51 = load i32, ptr %11, align 4
  %52 = load i32, ptr %18, align 4
  %53 = call i32 @dvb_enc_to_item_enc(i32 noundef %52)
  %54 = call ptr @tvb_get_string_enc(ptr noundef %48, ptr noundef %49, i32 noundef %50, i32 noundef %51, i32 noundef %53)
  store ptr %54, ptr %19, align 8
  %55 = load ptr, ptr %19, align 8
  %56 = icmp ne ptr %55, null
  br i1 %56, label %58, label %57

57:                                               ; preds = %29
  store i32 1, ptr %20, align 4
  br label %76

58:                                               ; preds = %29
  %59 = load ptr, ptr %13, align 8
  %60 = load i32, ptr %14, align 4
  %61 = load ptr, ptr %9, align 8
  %62 = load i32, ptr %10, align 4
  %63 = load i32, ptr %11, align 4
  %64 = load ptr, ptr %19, align 8
  %65 = load ptr, ptr %15, align 8
  %66 = load ptr, ptr %19, align 8
  %67 = call ptr (ptr, i32, ptr, i32, i32, ptr, ptr, ...) @proto_tree_add_string_format(ptr noundef %59, i32 noundef %60, ptr noundef %61, i32 noundef %62, i32 noundef %63, ptr noundef %64, ptr noundef @.str.1019, ptr noundef %65, ptr noundef %66)
  %68 = load i8, ptr %16, align 1, !range !9, !noundef !10
  %69 = trunc i8 %68 to i1
  br i1 %69, label %70, label %75

70:                                               ; preds = %58
  %71 = load ptr, ptr %12, align 8
  %72 = getelementptr inbounds nuw %struct._packet_info, ptr %71, i32 0, i32 1
  %73 = load ptr, ptr %72, align 8
  %74 = load ptr, ptr %19, align 8
  call void @col_append_sep_str(ptr noundef %73, i32 noundef 25, ptr noundef @.str.1020, ptr noundef %74)
  br label %75

75:                                               ; preds = %70, %58
  store i32 0, ptr %20, align 4
  br label %76

76:                                               ; preds = %75, %57, %28, %24
  call void @llvm.lifetime.end.p0(i64 8, ptr %19) #11
  call void @llvm.lifetime.end.p0(i64 4, ptr %18) #11
  call void @llvm.lifetime.end.p0(i64 4, ptr %17) #11
  %77 = load i32, ptr %20, align 4
  switch i32 %77, label %79 [
    i32 0, label %78
    i32 1, label %78
  ]

78:                                               ; preds = %76, %76
  ret void

79:                                               ; preds = %76
  unreachable
}