; Function Attrs: null_pointer_is_valid sspstrong uwtable
define internal fastcc void @dissect_si_string(ptr noundef %0, i32 noundef %1, i32 noundef %2, ptr noundef readonly captures(none) %3, ptr noundef %4, i32 noundef %5, ptr noundef %6, i1 noundef zeroext %7) unnamed_addr #1 {
  %9 = alloca i32, align 4
  call void @llvm.lifetime.start.p0(i64 4, ptr nonnull %9) #16
  %.not = icmp eq ptr %6, null
  %10 = icmp slt i32 %2, 1
  %or.cond = or i1 %10, %.not
  br i1 %or.cond, label %27, label %11

11:                                               ; preds = %8
  %12 = call i32 @dvb_analyze_string_charset(ptr noundef %0, i32 noundef %1, i32 noundef %2, ptr noundef nonnull %9)
  %13 = load i32, ptr @hf_dvbci_mmi_char_tbl, align 4
  %14 = load i32, ptr %9, align 4
  call void @dvb_add_chartbl(ptr noundef %4, i32 noundef %13, ptr noundef %0, i32 noundef %1, i32 noundef %12, i32 noundef %14)
  %15 = add i32 %12, %1
  %16 = sub i32 %2, %12
  %17 = getelementptr inbounds nuw i8, ptr %3, i64 408
  %18 = load ptr, ptr %17, align 8
  %19 = load i32, ptr %9, align 4
  %20 = call i32 @dvb_enc_to_item_enc(i32 noundef %19)
  %21 = call ptr @tvb_get_string_enc(ptr noundef %18, ptr noundef %0, i32 noundef %15, i32 noundef %16, i32 noundef %20)
  %.not30 = icmp eq ptr %21, null
  br i1 %.not30, label %27, label %22

22:                                               ; preds = %11
  %23 = call ptr (ptr, i32, ptr, i32, i32, ptr, ptr, ...) @proto_tree_add_string_format(ptr noundef %4, i32 noundef %5, ptr noundef %0, i32 noundef %15, i32 noundef %16, ptr noundef nonnull %21, ptr noundef nonnull @.str.1019, ptr noundef nonnull %6, ptr noundef nonnull %21)
  br i1 %7, label %24, label %27

24:                                               ; preds = %22
  %25 = getelementptr inbounds nuw i8, ptr %3, i64 8
  %26 = load ptr, ptr %25, align 8
  call void @col_append_sep_str(ptr noundef %26, i32 noundef 25, ptr noundef nonnull @.str.1020, ptr noundef nonnull %21)
  br label %27

27:                                               ; preds = %22, %24, %11, %8
  call void @llvm.lifetime.end.p0(i64 4, ptr nonnull %9) #16
  ret void
}